target datalayout = "e-m:e-p270:32:32-p271:32:32-p272:64:64-i64:64-i128:128-f80:128-n8:16:32:64-S128"
target triple = "x86_64-pc-linux-gnu"

%struct.ScanKeyData = type { i32, i16, i16, i32, i32, %struct.FmgrInfo, i64 }
%struct.FmgrInfo = type { ptr, i32, i16, i8, i8, i8, ptr, ptr, ptr }
%struct.FormData_pg_inherits = type { i32, i32, i32, i8 }
%struct.HeapTupleData = type { i32, %struct.ItemPointerData, i32, ptr }
%struct.ItemPointerData = type { %struct.BlockIdData, i16 }
%struct.BlockIdData = type { i16, i16 }
%struct.HeapTupleHeaderData = type { %union.anon, %struct.ItemPointerData, i16, i16, i8, [0 x i8] }
%union.anon = type { %struct.HeapTupleFields }
%struct.HeapTupleFields = type { i32, i32, %union.anon.0 }
%union.anon.0 = type { i32 }

@.str.1 = private unnamed_addr constant [14 x i8] c"pg_inherits.c\00", align 1
@.str.4 = private unnamed_addr constant [29 x i8] c"cannot detach partition \22%s\22\00", align 1
@.str.5 = private unnamed_addr constant [17 x i8] c"unknown relation\00", align 1
@.str.6 = private unnamed_addr constant [74 x i8] c"The partition is being detached concurrently or has an unfinished detach.\00", align 1
@.str.7 = private unnamed_addr constant [92 x i8] c"Use ALTER TABLE ... DETACH PARTITION ... FINALIZE to complete the pending detach operation.\00", align 1
@__func__.DeleteInheritsTuple = private unnamed_addr constant [20 x i8] c"DeleteInheritsTuple\00", align 1
@.str.8 = private unnamed_addr constant [41 x i8] c"cannot complete detaching partition \22%s\22\00", align 1
@.str.9 = private unnamed_addr constant [38 x i8] c"There's no pending concurrent detach.\00", align 1

; Function Attrs: inlinehint nounwind uwtable
define internal ptr @GETSTRUCT(ptr noundef %0) #3 {
  %2 = alloca ptr, align 8
  store ptr %0, ptr %2, align 8
  %3 = load ptr, ptr %2, align 8
  %4 = getelementptr inbounds nuw %struct.HeapTupleData, ptr %3, i32 0, i32 3
  %5 = load ptr, ptr %4, align 8
  %6 = load ptr, ptr %2, align 8
  %7 = getelementptr inbounds nuw %struct.HeapTupleData, ptr %6, i32 0, i32 3
  %8 = load ptr, ptr %7, align 8
  %9 = getelementptr inbounds nuw %struct.HeapTupleHeaderData, ptr %8, i32 0, i32 4
  %10 = load i8, ptr %9, align 2
  %11 = zext i8 %10 to i32
  %12 = sext i32 %11 to i64
  %13 = getelementptr inbounds i8, ptr %5, i64 %12
  ret ptr %13
}

; Function Attrs: inlinehint nounwind uwtable
define internal i64 @ObjectIdGetDatum(i32 noundef %0) #3 {
  %2 = alloca i32, align 4
  store i32 %0, ptr %2, align 4
  %3 = load i32, ptr %2, align 4
  %4 = zext i32 %3 to i64
  ret i64 %4
}

; Function Attrs: nounwind uwtable
define dso_local zeroext i1 @DeleteInheritsTuple(i32 noundef %0, i32 noundef %1, i1 noundef zeroext %2, ptr noundef %3) #0 {
  %5 = alloca i32, align 4
  %6 = alloca i32, align 4
  %7 = alloca i8, align 1
  %8 = alloca ptr, align 8
  %9 = alloca i8, align 1
  %10 = alloca ptr, align 8
  %11 = alloca %struct.ScanKeyData, align 8
  %12 = alloca ptr, align 8
  %13 = alloca ptr, align 8
  %14 = alloca i32, align 4
  %15 = alloca i8, align 1
  store i32 %0, ptr %5, align 4
  store i32 %1, ptr %6, align 4
  %16 = zext i1 %2 to i8
  store i8 %16, ptr %7, align 1
  store ptr %3, ptr %8, align 8
  call void @llvm.lifetime.start.p0(i64 1, ptr %9) #6
  store i8 0, ptr %9, align 1
  call void @llvm.lifetime.start.p0(i64 8, ptr %10) #6
  call void @llvm.lifetime.start.p0(i64 72, ptr %11) #6
  call void @llvm.lifetime.start.p0(i64 8, ptr %12) #6
  call void @llvm.lifetime.start.p0(i64 8, ptr %13) #6
  %17 = call ptr @table_open(i32 noundef 2611, i32 noundef 3)
  store ptr %17, ptr %10, align 8
  %18 = load i32, ptr %5, align 4
  %19 = call i64 @ObjectIdGetDatum(i32 noundef %18)
  call void @ScanKeyInit(ptr noundef %11, i16 noundef signext 1, i16 noundef zeroext 3, i32 noundef 184, i64 noundef %19)
  %20 = load ptr, ptr %10, align 8
  %21 = call ptr @systable_beginscan(ptr noundef %20, i32 noundef 2680, i1 noundef zeroext true, ptr noundef null, i32 noundef 1, ptr noundef %11)
  store ptr %21, ptr %12, align 8
  br label %22

22:                                               ; preds = %100, %4
  %23 = load ptr, ptr %12, align 8
  %24 = call ptr @systable_getnext(ptr noundef %23)
  store ptr %24, ptr %13, align 8
  %25 = icmp ne ptr %24, null
  br i1 %25, label %26, label %101

26:                                               ; preds = %22
  call void @llvm.lifetime.start.p0(i64 4, ptr %14) #6
  %27 = load ptr, ptr %13, align 8
  %28 = call ptr @GETSTRUCT(ptr noundef %27)
  %29 = getelementptr inbounds nuw %struct.FormData_pg_inherits, ptr %28, i32 0, i32 1
  %30 = load i32, ptr %29, align 4
  store i32 %30, ptr %14, align 4
  %31 = load i32, ptr %6, align 4
  %32 = icmp ne i32 %31, 0
  br i1 %32, label %33, label %37

33:                                               ; preds = %26
  %34 = load i32, ptr %14, align 4
  %35 = load i32, ptr %6, align 4
  %36 = icmp eq i32 %34, %35
  br i1 %36, label %37, label %100

37:                                               ; preds = %33, %26
  call void @llvm.lifetime.start.p0(i64 1, ptr %15) #6
  %38 = load ptr, ptr %13, align 8
  %39 = call ptr @GETSTRUCT(ptr noundef %38)
  %40 = getelementptr inbounds nuw %struct.FormData_pg_inherits, ptr %39, i32 0, i32 3
  %41 = load i8, ptr %40, align 4, !range !4, !noundef !5
  %42 = trunc i8 %41 to i1
  %43 = zext i1 %42 to i8
  store i8 %43, ptr %15, align 1
  %44 = load i8, ptr %15, align 1, !range !4, !noundef !5
  %45 = trunc i8 %44 to i1
  br i1 %45, label %46, label %70

46:                                               ; preds = %37
  %47 = load i8, ptr %7, align 1, !range !4, !noundef !5
  %48 = trunc i8 %47 to i1
  br i1 %48, label %70, label %49

49:                                               ; preds = %46
  br label %50

50:                                               ; preds = %49
  br i1 true, label %51, label %53

51:                                               ; preds = %50
  %52 = call zeroext i1 @errstart_cold(i32 noundef 21, ptr noundef null) #7
  br i1 %52, label %55, label %67

53:                                               ; preds = %50
  %54 = call zeroext i1 @errstart(i32 noundef 21, ptr noundef null)
  br i1 %54, label %55, label %67

55:                                               ; preds = %53, %51
  %56 = call i32 @errcode(i32 noundef 325)
  %57 = load ptr, ptr %8, align 8
  %58 = icmp ne ptr %57, null
  br i1 %58, label %59, label %61

59:                                               ; preds = %55
  %60 = load ptr, ptr %8, align 8
  br label %62

61:                                               ; preds = %55
  br label %62

62:                                               ; preds = %61, %59
  %63 = phi ptr [ %60, %59 ], [ @.str.5, %61 ]
  %64 = call i32 (ptr, ...) @errmsg(ptr noundef @.str.4, ptr noundef %63)
  %65 = call i32 (ptr, ...) @errdetail(ptr noundef @.str.6)
  %66 = call i32 (ptr, ...) @errhint(ptr noundef @.str.7)
  call void @errfinish(ptr noundef @.str.1, i32 noundef 595, ptr noundef @__func__.DeleteInheritsTuple)
  br label %67

67:                                               ; preds = %62, %53, %51
  unreachable

68:                                               ; No predecessors!
  br label %69

69:                                               ; preds = %68
  br label %70

70:                                               ; preds = %69, %46, %37
  %71 = load i8, ptr %15, align 1, !range !4, !noundef !5
  %72 = trunc i8 %71 to i1
  br i1 %72, label %96, label %73

73:                                               ; preds = %70
  %74 = load i8, ptr %7, align 1, !range !4, !noundef !5
  %75 = trunc i8 %74 to i1
  br i1 %75, label %76, label %96

76:                                               ; preds = %73
  br label %77

77:                                               ; preds = %76
  br i1 true, label %78, label %80

78:                                               ; preds = %77
  %79 = call zeroext i1 @errstart_cold(i32 noundef 21, ptr noundef null) #7
  br i1 %79, label %82, label %93

80:                                               ; preds = %77
  %81 = call zeroext i1 @errstart(i32 noundef 21, ptr noundef null)
  br i1 %81, label %82, label %93

82:                                               ; preds = %80, %78
  %83 = call i32 @errcode(i32 noundef 325)
  %84 = load ptr, ptr %8, align 8
  %85 = icmp ne ptr %84, null
  br i1 %85, label %86, label %88

86:                                               ; preds = %82
  %87 = load ptr, ptr %8, align 8
  br label %89

88:                                               ; preds = %82
  br label %89

89:                                               ; preds = %88, %86
  %90 = phi ptr [ %87, %86 ], [ @.str.5, %88 ]
  %91 = call i32 (ptr, ...) @errmsg(ptr noundef @.str.8, ptr noundef %90)
  %92 = call i32 (ptr, ...) @errdetail(ptr noundef @.str.9)
  call void @errfinish(ptr noundef @.str.1, i32 noundef 601, ptr noundef @__func__.DeleteInheritsTuple)
  br label %93

93:                                               ; preds = %89, %80, %78
  unreachable

94:                                               ; No predecessors!
  br label %95

95:                                               ; preds = %94
  br label %96

96:                                               ; preds = %95, %73, %70
  %97 = load ptr, ptr %10, align 8
  %98 = load ptr, ptr %13, align 8
  %99 = getelementptr inbounds nuw %struct.HeapTupleData, ptr %98, i32 0, i32 1
  call void @CatalogTupleDelete(ptr noundef %97, ptr noundef %99)
  store i8 1, ptr %9, align 1
  call void @llvm.lifetime.end.p0(i64 1, ptr %15) #6
  br label %100

100:                                              ; preds = %96, %33
  call void @llvm.lifetime.end.p0(i64 4, ptr %14) #6
  br label %22, !llvm.loop !13

101:                                              ; preds = %22
  %102 = load ptr, ptr %12, align 8
  call void @systable_endscan(ptr noundef %102)
  %103 = load ptr, ptr %10, align 8
  call void @table_close(ptr noundef %103, i32 noundef 3)
  %104 = load i8, ptr %9, align 1, !range !4, !noundef !5
  %105 = trunc i8 %104 to i1
  call void @llvm.lifetime.end.p0(i64 8, ptr %13) #6
  call void @llvm.lifetime.end.p0(i64 8, ptr %12) #6
  call void @llvm.lifetime.end.p0(i64 72, ptr %11) #6
  call void @llvm.lifetime.end.p0(i64 8, ptr %10) #6
  call void @llvm.lifetime.end.p0(i64 1, ptr %9) #6
  ret i1 %105
}